target datalayout = "e-m:e-p270:32:32-p271:32:32-p272:64:64-i64:64-i128:128-f80:128-n8:16:32:64-S128"
target triple = "x86_64-pc-linux-gnu"

%union.pthread_mutex_t = type { %struct.__pthread_mutex_s }
%struct.__pthread_mutex_s = type { i32, i32, i32, i32, i32, i16, i16, %struct.__pthread_internal_list }
%struct.__pthread_internal_list = type { ptr, ptr }
%struct.slurm_acct_gather_energy_ops = type { ptr, ptr, ptr, ptr, ptr, ptr }
%struct.acct_gather_energy = type { i32, i64, i64, i32, i64, i64, i64 }

@g_context_lock = internal global %union.pthread_mutex_t zeroinitializer, align 8
@.str.1 = private unnamed_addr constant [29 x i8] c"%s: pthread_mutex_lock(): %m\00", align 1
@g_context_num = internal global i32 -1, align 4
@ops = internal global ptr null, align 8
@.str.3 = private unnamed_addr constant [21 x i8] c"acct_gather_energy.c\00", align 1
@g_context = internal global ptr null, align 8
@.str.7 = private unnamed_addr constant [31 x i8] c"%s: pthread_mutex_unlock(): %m\00", align 1
@__func__.acct_gather_energy_alloc = private unnamed_addr constant [25 x i8] c"acct_gather_energy_alloc\00", align 1
@acct_gather_energy_g_get_sum.e = internal global ptr null, align 8
@acct_gather_energy_g_get_sum.energy_array = internal global ptr null, align 8
@__func__.acct_gather_energy_g_get_sum = private unnamed_addr constant [29 x i8] c"acct_gather_energy_g_get_sum\00", align 1

; Function Attrs: nounwind uwtable
define dso_local void @acct_gather_energy_destroy(ptr noundef %0) #0 {
  %2 = alloca ptr, align 8
  store ptr %0, ptr %2, align 8
  call void @slurm_xfree(ptr noundef %2)
  ret void
}

; Function Attrs: nounwind uwtable
define dso_local ptr @acct_gather_energy_alloc(i16 noundef zeroext %0) #0 {
  %2 = alloca i16, align 2
  store i16 %0, ptr %2, align 2
  %3 = load i16, ptr %2, align 2
  %4 = zext i16 %3 to i64
  %5 = call ptr @slurm_xcalloc(i64 noundef %4, i64 noundef 56, i1 noundef zeroext true, i1 noundef zeroext false, ptr noundef @.str.3, i32 noundef 230, ptr noundef @__func__.acct_gather_energy_alloc)
  ret ptr %5
}

; Function Attrs: nounwind uwtable
define dso_local i32 @acct_gather_energy_g_get_sum(i32 noundef %0, ptr noundef %1) #0 {
  %3 = alloca i32, align 4
  %4 = alloca i32, align 4
  %5 = alloca ptr, align 8
  %6 = alloca i32, align 4
  %7 = alloca i32, align 4
  %8 = alloca i32, align 4
  %9 = alloca i32, align 4
  %10 = alloca i32, align 4
  %11 = alloca i32, align 4
  store i32 %0, ptr %4, align 4
  store ptr %1, ptr %5, align 8
  call void @llvm.lifetime.start.p0(i64 4, ptr %6) #7
  store i32 -1, ptr %6, align 4
  %12 = load i32, ptr @g_context_num, align 4
  %13 = icmp ne i32 %12, 0
  br i1 %13, label %15, label %14

14:                                               ; preds = %2
  store i32 0, ptr %3, align 4
  store i32 1, ptr %7, align 4
  br label %157

15:                                               ; preds = %2
  br label %16

16:                                               ; preds = %15
  call void @llvm.lifetime.start.p0(i64 4, ptr %8) #7
  %17 = call i32 @pthread_mutex_lock(ptr noundef @g_context_lock) #7
  store i32 %17, ptr %8, align 4
  %18 = load i32, ptr %8, align 4
  %19 = icmp ne i32 %18, 0
  br i1 %19, label %20, label %23

20:                                               ; preds = %16
  %21 = load i32, ptr %8, align 4
  %22 = call ptr @__errno_location() #8
  store i32 %21, ptr %22, align 4
  call void (ptr, ...) @fatal_abort(ptr noundef @.str.1, ptr noundef @__func__.acct_gather_energy_g_get_sum) #9
  unreachable

23:                                               ; preds = %16
  call void @llvm.lifetime.end.p0(i64 4, ptr %8) #7
  br label %24

24:                                               ; preds = %23
  br label %25

25:                                               ; preds = %24
  %26 = load i32, ptr @g_context_num, align 4
  %27 = icmp eq i32 %26, 1
  br i1 %27, label %28, label %47

28:                                               ; preds = %25
  %29 = load ptr, ptr @ops, align 8
  %30 = getelementptr inbounds %struct.slurm_acct_gather_energy_ops, ptr %29, i64 0
  %31 = getelementptr inbounds nuw %struct.slurm_acct_gather_energy_ops, ptr %30, i32 0, i32 1
  %32 = load ptr, ptr %31, align 8
  %33 = load i32, ptr %4, align 4
  %34 = load ptr, ptr %5, align 8
  %35 = call i32 %32(i32 noundef %33, ptr noundef %34)
  store i32 %35, ptr %6, align 4
  br label %36

36:                                               ; preds = %28
  call void @llvm.lifetime.start.p0(i64 4, ptr %9) #7
  %37 = call i32 @pthread_mutex_unlock(ptr noundef @g_context_lock) #7
  store i32 %37, ptr %9, align 4
  %38 = load i32, ptr %9, align 4
  %39 = icmp ne i32 %38, 0
  br i1 %39, label %40, label %43

40:                                               ; preds = %36
  %41 = load i32, ptr %9, align 4
  %42 = call ptr @__errno_location() #8
  store i32 %41, ptr %42, align 4
  call void (ptr, ...) @fatal_abort(ptr noundef @.str.7, ptr noundef @__func__.acct_gather_energy_g_get_sum) #9
  unreachable

43:                                               ; preds = %36
  call void @llvm.lifetime.end.p0(i64 4, ptr %9) #7
  br label %44

44:                                               ; preds = %43
  br label %45

45:                                               ; preds = %44
  %46 = load i32, ptr %6, align 4
  store i32 %46, ptr %3, align 4
  store i32 1, ptr %7, align 4
  br label %157

47:                                               ; preds = %25
  %48 = load i32, ptr @g_context_num, align 4
  %49 = trunc i32 %48 to i16
  %50 = call ptr @acct_gather_energy_alloc(i16 noundef zeroext %49)
  store ptr %50, ptr @acct_gather_energy_g_get_sum.energy_array, align 8
  call void @llvm.lifetime.start.p0(i64 4, ptr %10) #7
  store i32 0, ptr %10, align 4
  br label %51

51:                                               ; preds = %141, %47
  %52 = load i32, ptr %10, align 4
  %53 = load i32, ptr @g_context_num, align 4
  %54 = icmp slt i32 %52, %53
  br i1 %54, label %56, label %55

55:                                               ; preds = %51
  store i32 6, ptr %7, align 4
  call void @llvm.lifetime.end.p0(i64 4, ptr %10) #7
  br label %144

56:                                               ; preds = %51
  %57 = load ptr, ptr @g_context, align 8
  %58 = load i32, ptr %10, align 4
  %59 = sext i32 %58 to i64
  %60 = getelementptr inbounds ptr, ptr %57, i64 %59
  %61 = load ptr, ptr %60, align 8
  %62 = icmp ne ptr %61, null
  br i1 %62, label %64, label %63

63:                                               ; preds = %56
  br label %141

64:                                               ; preds = %56
  %65 = load ptr, ptr @acct_gather_energy_g_get_sum.energy_array, align 8
  %66 = load i32, ptr %10, align 4
  %67 = sext i32 %66 to i64
  %68 = getelementptr inbounds %struct.acct_gather_energy, ptr %65, i64 %67
  store ptr %68, ptr @acct_gather_energy_g_get_sum.e, align 8
  %69 = load ptr, ptr @ops, align 8
  %70 = load i32, ptr %10, align 4
  %71 = sext i32 %70 to i64
  %72 = getelementptr inbounds %struct.slurm_acct_gather_energy_ops, ptr %69, i64 %71
  %73 = getelementptr inbounds nuw %struct.slurm_acct_gather_energy_ops, ptr %72, i32 0, i32 1
  %74 = load ptr, ptr %73, align 8
  %75 = load i32, ptr %4, align 4
  %76 = load ptr, ptr @acct_gather_energy_g_get_sum.e, align 8
  %77 = call i32 %74(i32 noundef %75, ptr noundef %76)
  store i32 %77, ptr %6, align 4
  %78 = load i32, ptr %6, align 4
  %79 = icmp ne i32 %78, 0
  br i1 %79, label %85, label %80

80:                                               ; preds = %64
  %81 = load ptr, ptr @acct_gather_energy_g_get_sum.e, align 8
  %82 = getelementptr inbounds nuw %struct.acct_gather_energy, ptr %81, i32 0, i32 2
  %83 = load i64, ptr %82, align 8
  %84 = icmp eq i64 %83, -2
  br i1 %84, label %85, label %86

85:                                               ; preds = %80, %64
  br label %141

86:                                               ; preds = %80
  %87 = load ptr, ptr @acct_gather_energy_g_get_sum.e, align 8
  %88 = getelementptr inbounds nuw %struct.acct_gather_energy, ptr %87, i32 0, i32 1
  %89 = load i64, ptr %88, align 8
  %90 = load ptr, ptr %5, align 8
  %91 = getelementptr inbounds nuw %struct.acct_gather_energy, ptr %90, i32 0, i32 1
  %92 = load i64, ptr %91, align 8
  %93 = add i64 %92, %89
  store i64 %93, ptr %91, align 8
  %94 = load ptr, ptr @acct_gather_energy_g_get_sum.e, align 8
  %95 = getelementptr inbounds nuw %struct.acct_gather_energy, ptr %94, i32 0, i32 0
  %96 = load i32, ptr %95, align 8
  %97 = load ptr, ptr %5, align 8
  %98 = getelementptr inbounds nuw %struct.acct_gather_energy, ptr %97, i32 0, i32 0
  %99 = load i32, ptr %98, align 8
  %100 = add i32 %99, %96
  store i32 %100, ptr %98, align 8
  %101 = load ptr, ptr @acct_gather_energy_g_get_sum.e, align 8
  %102 = getelementptr inbounds nuw %struct.acct_gather_energy, ptr %101, i32 0, i32 2
  %103 = load i64, ptr %102, align 8
  %104 = load ptr, ptr %5, align 8
  %105 = getelementptr inbounds nuw %struct.acct_gather_energy, ptr %104, i32 0, i32 2
  %106 = load i64, ptr %105, align 8
  %107 = add i64 %106, %103
  store i64 %107, ptr %105, align 8
  %108 = load ptr, ptr @acct_gather_energy_g_get_sum.e, align 8
  %109 = getelementptr inbounds nuw %struct.acct_gather_energy, ptr %108, i32 0, i32 3
  %110 = load i32, ptr %109, align 8
  %111 = load ptr, ptr %5, align 8
  %112 = getelementptr inbounds nuw %struct.acct_gather_energy, ptr %111, i32 0, i32 3
  %113 = load i32, ptr %112, align 8
  %114 = add i32 %113, %110
  store i32 %114, ptr %112, align 8
  %115 = load ptr, ptr @acct_gather_energy_g_get_sum.e, align 8
  %116 = getelementptr inbounds nuw %struct.acct_gather_energy, ptr %115, i32 0, i32 4
  %117 = load i64, ptr %116, align 8
  %118 = load ptr, ptr %5, align 8
  %119 = getelementptr inbounds nuw %struct.acct_gather_energy, ptr %118, i32 0, i32 4
  %120 = load i64, ptr %119, align 8
  %121 = add i64 %120, %117
  store i64 %121, ptr %119, align 8
  %122 = load ptr, ptr %5, align 8
  %123 = getelementptr inbounds nuw %struct.acct_gather_energy, ptr %122, i32 0, i32 5
  %124 = load i64, ptr %123, align 8
  %125 = icmp ne i64 %124, 0
  br i1 %125, label %126, label %134

126:                                              ; preds = %86
  %127 = load ptr, ptr %5, align 8
  %128 = getelementptr inbounds nuw %struct.acct_gather_energy, ptr %127, i32 0, i32 5
  %129 = load i64, ptr %128, align 8
  %130 = load ptr, ptr @acct_gather_energy_g_get_sum.e, align 8
  %131 = getelementptr inbounds nuw %struct.acct_gather_energy, ptr %130, i32 0, i32 5
  %132 = load i64, ptr %131, align 8
  %133 = icmp sgt i64 %129, %132
  br i1 %133, label %134, label %140

134:                                              ; preds = %126, %86
  %135 = load ptr, ptr @acct_gather_energy_g_get_sum.e, align 8
  %136 = getelementptr inbounds nuw %struct.acct_gather_energy, ptr %135, i32 0, i32 5
  %137 = load i64, ptr %136, align 8
  %138 = load ptr, ptr %5, align 8
  %139 = getelementptr inbounds nuw %struct.acct_gather_energy, ptr %138, i32 0, i32 5
  store i64 %137, ptr %139, align 8
  br label %140

140:                                              ; preds = %134, %126
  br label %141

141:                                              ; preds = %140, %85, %63
  %142 = load i32, ptr %10, align 4
  %143 = add nsw i32 %142, 1
  store i32 %143, ptr %10, align 4
  br label %51, !llvm.loop !15

144:                                              ; preds = %55
  br label %145

145:                                              ; preds = %144
  call void @llvm.lifetime.start.p0(i64 4, ptr %11) #7
  %146 = call i32 @pthread_mutex_unlock(ptr noundef @g_context_lock) #7
  store i32 %146, ptr %11, align 4
  %147 = load i32, ptr %11, align 4
  %148 = icmp ne i32 %147, 0
  br i1 %148, label %149, label %152

149:                                              ; preds = %145
  %150 = load i32, ptr %11, align 4
  %151 = call ptr @__errno_location() #8
  store i32 %150, ptr %151, align 4
  call void (ptr, ...) @fatal_abort(ptr noundef @.str.7, ptr noundef @__func__.acct_gather_energy_g_get_sum) #9
  unreachable

152:                                              ; preds = %145
  call void @llvm.lifetime.end.p0(i64 4, ptr %11) #7
  br label %153

153:                                              ; preds = %152
  br label %154

154:                                              ; preds = %153
  %155 = load ptr, ptr @acct_gather_energy_g_get_sum.energy_array, align 8
  call void @acct_gather_energy_destroy(ptr noundef %155)
  %156 = load i32, ptr %6, align 4
  store i32 %156, ptr %3, align 4
  store i32 1, ptr %7, align 4
  br label %157

157:                                              ; preds = %154, %45, %14
  call void @llvm.lifetime.end.p0(i64 4, ptr %6) #7
  %158 = load i32, ptr %3, align 4
  ret i32 %158
}