; Function Attrs: nounwind uwtable
define dso_local i32 @acct_gather_energy_g_get_sum(i32 noundef %0, ptr noundef %1) local_unnamed_addr #0 {
  %3 = alloca ptr, align 8
  %4 = load i32, ptr @g_context_num, align 4
  %.not = icmp eq i32 %4, 0
  br i1 %.not, label %77, label %5

5:                                                ; preds = %2
  %6 = tail call i32 @pthread_mutex_lock(ptr noundef nonnull @g_context_lock) #8
  %.not34 = icmp eq i32 %6, 0
  br i1 %.not34, label %9, label %7

7:                                                ; preds = %5
  %8 = tail call ptr @__errno_location() #9
  store i32 %6, ptr %8, align 4
  tail call void (ptr, ...) @fatal_abort(ptr noundef nonnull @.str.1, ptr noundef nonnull @__func__.acct_gather_energy_g_get_sum) #10
  unreachable

9:                                                ; preds = %5
  %10 = load i32, ptr @g_context_num, align 4
  %11 = icmp eq i32 %10, 1
  br i1 %11, label %12, label %20

12:                                               ; preds = %9
  %13 = load ptr, ptr @ops, align 8
  %14 = getelementptr inbounds nuw i8, ptr %13, i64 8
  %15 = load ptr, ptr %14, align 8
  %16 = tail call i32 %15(i32 noundef %0, ptr noundef %1) #8
  %17 = tail call i32 @pthread_mutex_unlock(ptr noundef nonnull @g_context_lock) #8
  %.not39 = icmp eq i32 %17, 0
  br i1 %.not39, label %77, label %18

18:                                               ; preds = %12
  %19 = tail call ptr @__errno_location() #9
  store i32 %17, ptr %19, align 4
  tail call void (ptr, ...) @fatal_abort(ptr noundef nonnull @.str.7, ptr noundef nonnull @__func__.acct_gather_energy_g_get_sum) #10
  unreachable

20:                                               ; preds = %9
  %21 = and i32 %10, 65535
  %22 = zext nneg i32 %21 to i64
  %23 = tail call ptr @slurm_xcalloc(i64 noundef %22, i64 noundef 56, i1 noundef zeroext true, i1 noundef zeroext false, ptr noundef nonnull @.str.3, i32 noundef 230, ptr noundef nonnull @__func__.acct_gather_energy_alloc) #8
  store ptr %23, ptr @acct_gather_energy_g_get_sum.energy_array, align 8
  %24 = load i32, ptr @g_context_num, align 4
  %25 = icmp sgt i32 %24, 0
  br i1 %25, label %.lr.ph, label %._crit_edge

.lr.ph:                                           ; preds = %20
  %26 = getelementptr inbounds nuw i8, ptr %1, i64 8
  %27 = getelementptr inbounds nuw i8, ptr %1, i64 16
  %28 = getelementptr inbounds nuw i8, ptr %1, i64 24
  %29 = getelementptr inbounds nuw i8, ptr %1, i64 32
  %30 = getelementptr inbounds nuw i8, ptr %1, i64 40
  br label %32

._crit_edge:                                      ; preds = %69, %20
  %.026.lcssa = phi i32 [ -1, %20 ], [ %.1, %69 ]
  %31 = tail call i32 @pthread_mutex_unlock(ptr noundef nonnull @g_context_lock) #8
  %.not35 = icmp eq i32 %31, 0
  br i1 %.not35, label %75, label %73

32:                                               ; preds = %.lr.ph, %69
  %indvars.iv = phi i64 [ 0, %.lr.ph ], [ %indvars.iv.next, %69 ]
  %.02640 = phi i32 [ -1, %.lr.ph ], [ %.1, %69 ]
  %33 = load ptr, ptr @g_context, align 8
  %34 = getelementptr inbounds nuw ptr, ptr %33, i64 %indvars.iv
  %35 = load ptr, ptr %34, align 8
  %.not36 = icmp eq ptr %35, null
  br i1 %.not36, label %69, label %36

36:                                               ; preds = %32
  %37 = load ptr, ptr @acct_gather_energy_g_get_sum.energy_array, align 8
  %38 = getelementptr inbounds nuw %struct.acct_gather_energy, ptr %37, i64 %indvars.iv
  store ptr %38, ptr @acct_gather_energy_g_get_sum.e, align 8
  %39 = load ptr, ptr @ops, align 8
  %40 = getelementptr inbounds nuw %struct.slurm_acct_gather_energy_ops, ptr %39, i64 %indvars.iv, i32 1
  %41 = load ptr, ptr %40, align 8
  %42 = tail call i32 %41(i32 noundef %0, ptr noundef %38) #8
  %.not37 = icmp eq i32 %42, 0
  br i1 %.not37, label %43, label %69

43:                                               ; preds = %36
  %44 = load ptr, ptr @acct_gather_energy_g_get_sum.e, align 8
  %45 = getelementptr inbounds nuw i8, ptr %44, i64 16
  %46 = load i64, ptr %45, align 8
  %47 = icmp eq i64 %46, -2
  br i1 %47, label %69, label %48

48:                                               ; preds = %43
  %49 = getelementptr inbounds nuw i8, ptr %44, i64 8
  %50 = load i64, ptr %49, align 8
  %51 = load i64, ptr %26, align 8
  %52 = add i64 %51, %50
  store i64 %52, ptr %26, align 8
  %53 = load i32, ptr %44, align 8
  %54 = load i32, ptr %1, align 8
  %55 = add i32 %54, %53
  store i32 %55, ptr %1, align 8
  %56 = load i64, ptr %45, align 8
  %57 = load i64, ptr %27, align 8
  %58 = add i64 %57, %56
  store i64 %58, ptr %27, align 8
  %59 = getelementptr inbounds nuw i8, ptr %44, i64 24
  %60 = load i32, ptr %59, align 8
  %61 = load i32, ptr %28, align 8
  %62 = add i32 %61, %60
  store i32 %62, ptr %28, align 8
  %63 = getelementptr inbounds nuw i8, ptr %44, i64 32
  %64 = load i64, ptr %63, align 8
  %65 = load i64, ptr %29, align 8
  %66 = add i64 %65, %64
  store i64 %66, ptr %29, align 8
  %67 = load i64, ptr %30, align 8
  %.not38 = icmp eq i64 %67, 0
  %.phi.trans.insert = getelementptr inbounds nuw i8, ptr %44, i64 40
  %.pre = load i64, ptr %.phi.trans.insert, align 8
  %68 = icmp sgt i64 %67, %.pre
  %or.cond = select i1 %.not38, i1 true, i1 %68
  br i1 %or.cond, label %._crit_edge43, label %69

._crit_edge43:                                    ; preds = %48
  store i64 %.pre, ptr %30, align 8
  br label %69

69:                                               ; preds = %48, %._crit_edge43, %36, %43, %32
  %.1 = phi i32 [ %42, %36 ], [ 0, %43 ], [ 0, %._crit_edge43 ], [ %.02640, %32 ], [ 0, %48 ]
  %indvars.iv.next = add nuw nsw i64 %indvars.iv, 1
  %70 = load i32, ptr @g_context_num, align 4
  %71 = sext i32 %70 to i64
  %72 = icmp slt i64 %indvars.iv.next, %71
  br i1 %72, label %32, label %._crit_edge, !llvm.loop !13

73:                                               ; preds = %._crit_edge
  %74 = tail call ptr @__errno_location() #9
  store i32 %31, ptr %74, align 4
  tail call void (ptr, ...) @fatal_abort(ptr noundef nonnull @.str.7, ptr noundef nonnull @__func__.acct_gather_energy_g_get_sum) #10
  unreachable

75:                                               ; preds = %._crit_edge
  %76 = load ptr, ptr @acct_gather_energy_g_get_sum.energy_array, align 8
  call void @llvm.lifetime.start.p0(i64 8, ptr nonnull %3)
  store ptr %76, ptr %3, align 8
  call void @slurm_xfree(ptr noundef nonnull %3) #8
  call void @llvm.lifetime.end.p0(i64 8, ptr nonnull %3)
  br label %77

77:                                               ; preds = %12, %2, %75
  %.0 = phi i32 [ %.026.lcssa, %75 ], [ 0, %2 ], [ %16, %12 ]
  ret i32 %.0
}